target datalayout = "e-m:e-p270:32:32-p271:32:32-p272:64:64-i64:64-i128:128-f80:128-n8:16:32:64-S128"
target triple = "x86_64-unknown-linux-gnu"

%"class.std::vector.34" = type { %"struct.std::_Vector_base.35" }
%"struct.std::_Vector_base.35" = type { %"struct.std::_Vector_base<std::shared_ptr<const facebook::velox::Type>, std::allocator<std::shared_ptr<const facebook::velox::Type>>>::_Vector_impl" }
%"struct.std::_Vector_base<std::shared_ptr<const facebook::velox::Type>, std::allocator<std::shared_ptr<const facebook::velox::Type>>>::_Vector_impl" = type { %"struct.std::_Vector_base<std::shared_ptr<const facebook::velox::Type>, std::allocator<std::shared_ptr<const facebook::velox::Type>>>::_Vector_impl_data" }
%"struct.std::_Vector_base<std::shared_ptr<const facebook::velox::Type>, std::allocator<std::shared_ptr<const facebook::velox::Type>>>::_Vector_impl_data" = type { ptr, ptr, ptr }
%"class.std::__shared_count" = type { ptr }
%"class.std::shared_ptr.53" = type { %"class.std::__shared_ptr.54" }
%"class.std::__shared_ptr.54" = type { ptr, %"class.std::__shared_count" }

; Function Attrs: mustprogress uwtable
define void @_ZN8facebook5velox11randRowTypeERSt23mersenne_twister_engineImLm32ELm624ELm397ELm31ELm2567483615ELm11ELm4294967295ELm7ELm2636928640ELm15ELm4022730752ELm18ELm1812433253EEi(ptr noalias sret(%"class.std::shared_ptr.53") align 8 %agg.result, ptr noundef nonnull align 8 dereferenceable(5000) %rng, i32 noundef %maxDepth) #5 personality ptr @__gxx_personality_v0 {
entry:
  %result.ptr = alloca ptr, align 8
  %rng.addr = alloca ptr, align 8
  %maxDepth.addr = alloca i32, align 4
  %ref.tmp = alloca %"class.std::vector.34", align 8
  %exn.slot = alloca ptr, align 8
  %ehselector.slot = alloca i32, align 4
  store ptr %agg.result, ptr %result.ptr, align 8
  store ptr %rng, ptr %rng.addr, align 8
  store i32 %maxDepth, ptr %maxDepth.addr, align 4
  %0 = load ptr, ptr %rng.addr, align 8
  call void @_ZN8facebook5velox12_GLOBAL__N_118defaultScalarTypesEv(ptr sret(%"class.std::vector.34") align 8 %ref.tmp)
  %1 = load i32, ptr %maxDepth.addr, align 4
  invoke void @_ZN8facebook5velox11randRowTypeERSt23mersenne_twister_engineImLm32ELm624ELm397ELm31ELm2567483615ELm11ELm4294967295ELm7ELm2636928640ELm15ELm4022730752ELm18ELm1812433253EERKSt6vectorISt10shared_ptrIKNS0_4TypeEESaIS8_EEi(ptr sret(%"class.std::shared_ptr.53") align 8 %agg.result, ptr noundef nonnull align 8 dereferenceable(5000) %0, ptr noundef nonnull align 8 dereferenceable(24) %ref.tmp, i32 noundef %1)
          to label %invoke.cont unwind label %lpad

invoke.cont:                                      ; preds = %entry
  call void @_ZNSt6vectorISt10shared_ptrIKN8facebook5velox4TypeEESaIS5_EED2Ev(ptr noundef nonnull align 8 dereferenceable(24) %ref.tmp) #3
  ret void

lpad:                                             ; preds = %entry
  %2 = landingpad { ptr, i32 }
          cleanup
  %3 = extractvalue { ptr, i32 } %2, 0
  store ptr %3, ptr %exn.slot, align 8
  %4 = extractvalue { ptr, i32 } %2, 1
  store i32 %4, ptr %ehselector.slot, align 4
  call void @_ZNSt6vectorISt10shared_ptrIKN8facebook5velox4TypeEESaIS5_EED2Ev(ptr noundef nonnull align 8 dereferenceable(24) %ref.tmp) #3
  br label %eh.resume

eh.resume:                                        ; preds = %lpad
  %exn = load ptr, ptr %exn.slot, align 8
  %sel = load i32, ptr %ehselector.slot, align 4
  %lpad.val = insertvalue { ptr, i32 } poison, ptr %exn, 0
  %lpad.val1 = insertvalue { ptr, i32 } %lpad.val, i32 %sel, 1
  resume { ptr, i32 } %lpad.val1
}